target datalayout = "e-m:e-p270:32:32-p271:32:32-p272:64:64-i64:64-i128:128-f80:128-n8:16:32:64-S128"
target triple = "x86_64-pc-linux-gnu"

@H5ES_init_g = global i8 0, align 1
@H5_libterm_g = external global i8, align 1

; Function Attrs: nounwind uwtable
define i32 @H5ES_term_package() #0 {
  %1 = alloca i32, align 4
  call void @llvm.lifetime.start.p0(i64 4, ptr %1) #5
  store i32 0, ptr %1, align 4, !tbaa !3
  %2 = load i8, ptr @H5ES_init_g, align 1, !tbaa !7, !range !9, !noundef !10
  %3 = trunc i8 %2 to i1
  br i1 %3, label %8, label %4

4:                                                ; preds = %0
  %5 = load i8, ptr @H5_libterm_g, align 1, !tbaa !7, !range !9, !noundef !10
  %6 = trunc i8 %5 to i1
  %7 = xor i1 %6, true
  br label %8

8:                                                ; preds = %4, %0
  %9 = phi i1 [ true, %0 ], [ %7, %4 ]
  %10 = xor i1 %9, true
  %11 = xor i1 %10, true
  %12 = zext i1 %11 to i32
  %13 = sext i32 %12 to i64
  %14 = call i64 @llvm.expect.i64(i64 %13, i64 1)
  %15 = icmp ne i64 %14, 0
  br i1 %15, label %16, label %30

16:                                               ; preds = %8
  %17 = load i8, ptr @H5ES_init_g, align 1, !tbaa !7, !range !9, !noundef !10
  %18 = trunc i8 %17 to i1
  br i1 %18, label %19, label %29

19:                                               ; preds = %16
  %20 = call i32 @H5I_dec_type_ref(i32 noundef 16)
  %21 = icmp sgt i32 %20, 0
  %22 = zext i1 %21 to i32
  %23 = load i32, ptr %1, align 4, !tbaa !3
  %24 = add nsw i32 %23, %22
  store i32 %24, ptr %1, align 4, !tbaa !3
  %25 = load i32, ptr %1, align 4, !tbaa !3
  %26 = icmp eq i32 0, %25
  br i1 %26, label %27, label %28

27:                                               ; preds = %19
  store i8 0, ptr @H5ES_init_g, align 1, !tbaa !7
  br label %28

28:                                               ; preds = %27, %19
  br label %29

29:                                               ; preds = %28, %16
  br label %30

30:                                               ; preds = %29, %8
  %31 = load i32, ptr %1, align 4, !tbaa !3
  call void @llvm.lifetime.end.p0(i64 4, ptr %1) #5
  ret i32 %31
}