; Function Attrs: nounwind uwtable
define range(i32 0, 2) i32 @H5ES_term_package() local_unnamed_addr #0 {
  %1 = load i8, ptr @H5ES_init_g, align 1, !tbaa !3, !range !7, !noundef !8
  %2 = trunc nuw i8 %1 to i1
  br i1 %2, label %3, label %7, !prof !12

3:                                                ; preds = %0
  %4 = tail call i32 @H5I_dec_type_ref(i32 noundef 16) #5
  %5 = icmp slt i32 %4, 1
  br i1 %5, label %6, label %7

6:                                                ; preds = %3
  store i8 0, ptr @H5ES_init_g, align 1, !tbaa !3
  br label %7

7:                                                ; preds = %0, %6, %3
  %.0 = phi i32 [ 0, %6 ], [ 1, %3 ], [ 0, %0 ]
  ret i32 %.0
}